; Function Attrs: mustprogress uwtable
define noundef ptr @_ZN14arrow_vendored4date11locate_zoneESt17basic_string_viewIcSt11char_traitsIcEE(i64 %tz_name.coerce0, ptr %tz_name.coerce1) local_unnamed_addr #7 personality ptr @__gxx_personality_v0 {
entry:
  %0 = load atomic i8, ptr @_ZGVZN14arrow_vendored4date13get_tzdb_listEvE5tz_db acquire, align 8
  %guard.uninitialized.i.i = icmp eq i8 %0, 0
  br i1 %guard.uninitialized.i.i, label %init.check.i.i, label %_ZN14arrow_vendored4date8get_tzdbEv.exit, !prof !6

init.check.i.i:                                   ; preds = %entry
  %1 = tail call i32 @__cxa_guard_acquire(ptr nonnull @_ZGVZN14arrow_vendored4date13get_tzdb_listEvE5tz_db) #24
  %tobool.not.i.i = icmp eq i32 %1, 0
  br i1 %tobool.not.i.i, label %_ZN14arrow_vendored4date8get_tzdbEv.exit, label %init.i.i

init.i.i:                                         ; preds = %init.check.i.i
  invoke fastcc void @_ZN14arrow_vendored4dateL11create_tzdbEv()
          to label %invoke.cont.i.i unwind label %lpad.i.i

invoke.cont.i.i:                                  ; preds = %init.i.i
  %2 = tail call i32 @__cxa_atexit(ptr nonnull @_ZN14arrow_vendored4date9tzdb_listD1Ev, ptr nonnull @_ZZN14arrow_vendored4date13get_tzdb_listEvE5tz_db, ptr nonnull @__dso_handle) #24
  tail call void @__cxa_guard_release(ptr nonnull @_ZGVZN14arrow_vendored4date13get_tzdb_listEvE5tz_db) #24
  br label %_ZN14arrow_vendored4date8get_tzdbEv.exit

lpad.i.i:                                         ; preds = %init.i.i
  %3 = landingpad { ptr, i32 }
          cleanup
  tail call void @__cxa_guard_abort(ptr nonnull @_ZGVZN14arrow_vendored4date13get_tzdb_listEvE5tz_db) #24
  resume { ptr, i32 } %3

_ZN14arrow_vendored4date8get_tzdbEv.exit:         ; preds = %entry, %init.check.i.i, %invoke.cont.i.i
  %4 = load atomic i64, ptr @_ZZN14arrow_vendored4date13get_tzdb_listEvE5tz_db seq_cst, align 8
  %5 = inttoptr i64 %4 to ptr
  %call1 = tail call noundef ptr @_ZNK14arrow_vendored4date4tzdb11locate_zoneESt17basic_string_viewIcSt11char_traitsIcEE(ptr noundef nonnull align 8 dereferenceable(88) %5, i64 %tz_name.coerce0, ptr %tz_name.coerce1)
  ret ptr %call1
}